SF:/home/abezbm/rusty-unit/evaluation/itoa/rusty-unit-0/src/lib.rs
FN:81,_RNvXs0_Csew5f5Roy2iL_4itoaNtB5_6BufferNtNtCsdVLAmxKopR0_4core5clone5Clone5cloneB5_
FN:99,_RINvMs1_Csew5f5Roy2iL_4itoaNtB6_6Buffer6formatpEB6_
FN:151,_RNvXs3_Csew5f5Roy2iL_4itoaaNtNtB5_7private6Sealed5writeB5_
FN:151,_RNvXs5_Csew5f5Roy2iL_4itoahNtNtB5_7private6Sealed5writeB5_
FN:151,_RNvXs7_Csew5f5Roy2iL_4itoasNtNtB5_7private6Sealed5writeB5_
FN:151,_RNvXs9_Csew5f5Roy2iL_4itoatNtNtB5_7private6Sealed5writeB5_
FN:151,_RNvXsb_Csew5f5Roy2iL_4itoalNtNtB5_7private6Sealed5writeB5_
FN:151,_RNvXsd_Csew5f5Roy2iL_4itoamNtNtB5_7private6Sealed5writeB5_
FN:151,_RNvXsf_Csew5f5Roy2iL_4itoaxNtNtB5_7private6Sealed5writeB5_
FN:151,_RNvXsh_Csew5f5Roy2iL_4itoayNtNtB5_7private6Sealed5writeB5_
FN:238,_RNvXsj_Csew5f5Roy2iL_4itoaiNtNtB5_7private6Sealed5writeB5_
FN:238,_RNvXsl_Csew5f5Roy2iL_4itoajNtNtB5_7private6Sealed5writeB5_
FN:264,_RNvXsn_Csew5f5Roy2iL_4itoanNtNtB5_7private6Sealed5writeB5_
FN:264,_RNvXsp_Csew5f5Roy2iL_4itoaoNtNtB5_7private6Sealed5writeB5_
FN:71,_RNvXCsew5f5Roy2iL_4itoaNtB2_6BufferNtNtCsdVLAmxKopR0_4core7default7Default7defaultB2_
FN:91,_RNvMs1_Csew5f5Roy2iL_4itoaNtB5_6Buffer3newB5_
FN:91,_RNvMs1_CslKU4WaBVSD6_4itoaNtB5_6Buffer3newCs2xnfwDM4T0F_4test
FN:151,_RNvXs7_CslKU4WaBVSD6_4itoasNtNtB5_7private6Sealed5writeCs2xnfwDM4T0F_4test
FN:151,_RNvXsf_CslKU4WaBVSD6_4itoaxNtNtB5_7private6Sealed5writeCs2xnfwDM4T0F_4test
FN:151,_RNvXsh_CslKU4WaBVSD6_4itoayNtNtB5_7private6Sealed5writeCs2xnfwDM4T0F_4test
FN:264,_RNvXsn_CslKU4WaBVSD6_4itoanNtNtB5_7private6Sealed5writeCs2xnfwDM4T0F_4test
FN:264,_RNvXsp_CslKU4WaBVSD6_4itoaoNtNtB5_7private6Sealed5writeCs2xnfwDM4T0F_4test
FN:99,_RINvMs1_CslKU4WaBVSD6_4itoaNtB6_6Buffer6formatnECs2xnfwDM4T0F_4test
FN:99,_RINvMs1_CslKU4WaBVSD6_4itoaNtB6_6Buffer6formatoECs2xnfwDM4T0F_4test
FN:99,_RINvMs1_CslKU4WaBVSD6_4itoaNtB6_6Buffer6formatsECs2xnfwDM4T0F_4test
FN:99,_RINvMs1_CslKU4WaBVSD6_4itoaNtB6_6Buffer6formatxECs2xnfwDM4T0F_4test
FN:99,_RINvMs1_CslKU4WaBVSD6_4itoaNtB6_6Buffer6formatyECs2xnfwDM4T0F_4test
FNDA:0,_RNvXs0_Csew5f5Roy2iL_4itoaNtB5_6BufferNtNtCsdVLAmxKopR0_4core5clone5Clone5cloneB5_
FNDA:0,_RINvMs1_Csew5f5Roy2iL_4itoaNtB6_6Buffer6formatpEB6_
FNDA:0,_RNvXs3_Csew5f5Roy2iL_4itoaaNtNtB5_7private6Sealed5writeB5_
FNDA:0,_RNvXs5_Csew5f5Roy2iL_4itoahNtNtB5_7private6Sealed5writeB5_
FNDA:0,_RNvXs7_Csew5f5Roy2iL_4itoasNtNtB5_7private6Sealed5writeB5_
FNDA:0,_RNvXs9_Csew5f5Roy2iL_4itoatNtNtB5_7private6Sealed5writeB5_
FNDA:0,_RNvXsb_Csew5f5Roy2iL_4itoalNtNtB5_7private6Sealed5writeB5_
FNDA:0,_RNvXsd_Csew5f5Roy2iL_4itoamNtNtB5_7private6Sealed5writeB5_
FNDA:0,_RNvXsf_Csew5f5Roy2iL_4itoaxNtNtB5_7private6Sealed5writeB5_
FNDA:0,_RNvXsh_Csew5f5Roy2iL_4itoayNtNtB5_7private6Sealed5writeB5_
FNDA:0,_RNvXsj_Csew5f5Roy2iL_4itoaiNtNtB5_7private6Sealed5writeB5_
FNDA:0,_RNvXsl_Csew5f5Roy2iL_4itoajNtNtB5_7private6Sealed5writeB5_
FNDA:0,_RNvXsn_Csew5f5Roy2iL_4itoanNtNtB5_7private6Sealed5writeB5_
FNDA:0,_RNvXsp_Csew5f5Roy2iL_4itoaoNtNtB5_7private6Sealed5writeB5_
FNDA:0,_RNvXCsew5f5Roy2iL_4itoaNtB2_6BufferNtNtCsdVLAmxKopR0_4core7default7Default7defaultB2_
FNDA:0,_RNvMs1_Csew5f5Roy2iL_4itoaNtB5_6Buffer3newB5_
FNDA:0,_RNvMs1_CslKU4WaBVSD6_4itoaNtB5_6Buffer3newCs2xnfwDM4T0F_4test
FNDA:0,_RNvXs7_CslKU4WaBVSD6_4itoasNtNtB5_7private6Sealed5writeCs2xnfwDM4T0F_4test
FNDA:0,_RNvXsf_CslKU4WaBVSD6_4itoaxNtNtB5_7private6Sealed5writeCs2xnfwDM4T0F_4test
FNDA:0,_RNvXsh_CslKU4WaBVSD6_4itoayNtNtB5_7private6Sealed5writeCs2xnfwDM4T0F_4test
FNDA:0,_RNvXsn_CslKU4WaBVSD6_4itoanNtNtB5_7private6Sealed5writeCs2xnfwDM4T0F_4test
FNDA:0,_RNvXsp_CslKU4WaBVSD6_4itoaoNtNtB5_7private6Sealed5writeCs2xnfwDM4T0F_4test
FNDA:0,_RINvMs1_CslKU4WaBVSD6_4itoaNtB6_6Buffer6formatnECs2xnfwDM4T0F_4test
FNDA:0,_RINvMs1_CslKU4WaBVSD6_4itoaNtB6_6Buffer6formatoECs2xnfwDM4T0F_4test
FNDA:0,_RINvMs1_CslKU4WaBVSD6_4itoaNtB6_6Buffer6formatsECs2xnfwDM4T0F_4test
FNDA:0,_RINvMs1_CslKU4WaBVSD6_4itoaNtB6_6Buffer6formatxECs2xnfwDM4T0F_4test
FNDA:0,_RINvMs1_CslKU4WaBVSD6_4itoaNtB6_6Buffer6formatyECs2xnfwDM4T0F_4test
FNF:7
FNH:0
DA:71,0
DA:72,0
DA:73,0
DA:81,0
DA:82,0
DA:83,0
DA:91,0
DA:92,0
DA:93,0
DA:94,0
DA:99,0
DA:100,0
DA:101,0
DA:102,0
DA:103,0
DA:104,0
DA:105,0
DA:106,0
DA:107,0
DA:108,0
DA:151,0
DA:152,0
DA:153,0
DA:154,0
DA:157,0
DA:159,0
DA:160,0
DA:161,0
DA:164,0
DA:165,0
DA:166,0
DA:167,0
DA:168,0
DA:169,0
DA:170,0
DA:171,0
DA:172,0
DA:173,0
DA:174,0
DA:178,0
DA:179,0
DA:180,0
DA:181,0
DA:182,0
DA:183,0
DA:184,0
DA:185,0
DA:188,0
DA:189,0
DA:190,0
DA:191,0
DA:192,0
DA:194,0
DA:195,0
DA:196,0
DA:197,0
DA:198,0
DA:201,0
DA:202,0
DA:203,0
DA:204,0
DA:205,0
DA:206,0
DA:208,0
DA:209,0
DA:210,0
DA:211,0
DA:238,0
DA:239,0
DA:240,0
DA:264,0
DA:265,0
DA:266,0
DA:267,0
DA:270,0
DA:272,0
DA:273,0
DA:274,0
DA:275,0
DA:276,0
DA:277,0
DA:278,0
DA:279,0
DA:280,0
DA:281,0
DA:282,0
DA:284,0
DA:285,0
DA:286,0
DA:287,0
DA:288,0
DA:289,0
DA:290,0
DA:291,0
DA:292,0
DA:293,0
DA:294,0
DA:295,0
DA:296,0
DA:297,0
DA:298,0
DA:300,0
DA:301,0
DA:302,0
DA:303,0
DA:304,0
DA:305,0
DA:306,0
DA:307,0
DA:308,0
DA:309,0
DA:310,0
DA:311,0
DA:312,0
DA:313,0
DA:315,0
DA:316,0
DA:317,0
DA:318,0
DA:319,0
DA:320,0
DA:322,0
DA:323,0
DA:324,0
DA:325,0
BRDA:104,0,0,-
BRDA:104,0,1,-
BRDA:104,1,2,-
BRDA:104,1,3,-
BRDA:104,2,4,-
BRDA:104,2,5,-
BRDA:104,3,6,-
BRDA:104,3,7,-
BRDA:104,4,8,-
BRDA:104,4,9,-
BRF:2
BRH:0
LF:125
LH:0
end_of_record
SF:/home/abezbm/rusty-unit/evaluation/itoa/rusty-unit-0/src/rusty_monitor.rs
FN:50,_RNvXNtCsew5f5Roy2iL_4itoa13rusty_monitorNtB2_8BinaryOpINtNtCsdVLAmxKopR0_4core7convert4IntomE4into
FN:81,_RNvXs_NtCsew5f5Roy2iL_4itoa13rusty_monitorNtB4_7UnaryOpINtNtCsdVLAmxKopR0_4core7convert4IntomE4into
FN:103,_RNvMs0_NtCsew5f5Roy2iL_4itoa13rusty_monitorNtB5_7Monitor8trace_fn
FN:113,_RNvMs0_NtCsew5f5Roy2iL_4itoa13rusty_monitorNtB5_7Monitor12trace_branch
FN:123,_RNvMs0_NtCsew5f5Roy2iL_4itoa13rusty_monitorNtB5_7Monitor5clear
FN:148,_RNvNtCsew5f5Roy2iL_4itoa13rusty_monitor11trace_entry
FN:149,_RNCNvNtCsew5f5Roy2iL_4itoa13rusty_monitor11trace_entry0B5_
FN:152,_RNvNtCsew5f5Roy2iL_4itoa13rusty_monitor17trace_zero_or_one
FN:154,_RNCNvNtCsew5f5Roy2iL_4itoa13rusty_monitor17trace_zero_or_one0B5_
FN:157,_RNvNtCsew5f5Roy2iL_4itoa13rusty_monitor32trace_switch_value_with_var_bool
FN:164,_RNCNvNtCsew5f5Roy2iL_4itoa13rusty_monitor32trace_switch_value_with_var_bool0B5_
FN:169,_RNvNtCsew5f5Roy2iL_4itoa13rusty_monitor31trace_switch_value_with_var_int
FN:180,_RNCNvNtCsew5f5Roy2iL_4itoa13rusty_monitor31trace_switch_value_with_var_int0B5_
FN:185,_RNvNtCsew5f5Roy2iL_4itoa13rusty_monitor32trace_switch_value_with_var_char
FN:196,_RNCNvNtCsew5f5Roy2iL_4itoa13rusty_monitor32trace_switch_value_with_var_char0B5_
FN:201,_RNvNtCsew5f5Roy2iL_4itoa13rusty_monitor8trace_op
FN:205,_RNvNtCsew5f5Roy2iL_4itoa13rusty_monitor16trace_branch_hit
FN:206,_RNCNvNtCsew5f5Roy2iL_4itoa13rusty_monitor16trace_branch_hit0B5_
FN:211,_RNvNtCsew5f5Roy2iL_4itoa13rusty_monitor17trace_branch_bool
FN:221,_RNCNvNtCsew5f5Roy2iL_4itoa13rusty_monitor17trace_branch_bool0B5_
FN:224,_RNvNtCsew5f5Roy2iL_4itoa13rusty_monitor8distance
FN:289,_RNvNtCsew5f5Roy2iL_4itoa13rusty_monitor11trace_const
FN:99,_RNvMs0_NtCsew5f5Roy2iL_4itoa13rusty_monitorNtB5_7Monitor11set_test_id
FN:130,_RNvMs0_NtCsew5f5Roy2iL_4itoa13rusty_monitorNtB5_7Monitor3new
FN:291,_RNvNtCsew5f5Roy2iL_4itoa13rusty_monitor11set_test_id
FN:292,_RNCNvNtCsew5f5Roy2iL_4itoa13rusty_monitor11set_test_id0B5_
FNDA:0,_RNvXNtCsew5f5Roy2iL_4itoa13rusty_monitorNtB2_8BinaryOpINtNtCsdVLAmxKopR0_4core7convert4IntomE4into
FNDA:0,_RNvXs_NtCsew5f5Roy2iL_4itoa13rusty_monitorNtB4_7UnaryOpINtNtCsdVLAmxKopR0_4core7convert4IntomE4into
FNDA:0,_RNvMs0_NtCsew5f5Roy2iL_4itoa13rusty_monitorNtB5_7Monitor8trace_fn
FNDA:0,_RNvMs0_NtCsew5f5Roy2iL_4itoa13rusty_monitorNtB5_7Monitor12trace_branch
FNDA:0,_RNvMs0_NtCsew5f5Roy2iL_4itoa13rusty_monitorNtB5_7Monitor5clear
FNDA:0,_RNvNtCsew5f5Roy2iL_4itoa13rusty_monitor11trace_entry
FNDA:0,_RNCNvNtCsew5f5Roy2iL_4itoa13rusty_monitor11trace_entry0B5_
FNDA:0,_RNvNtCsew5f5Roy2iL_4itoa13rusty_monitor17trace_zero_or_one
FNDA:0,_RNCNvNtCsew5f5Roy2iL_4itoa13rusty_monitor17trace_zero_or_one0B5_
FNDA:0,_RNvNtCsew5f5Roy2iL_4itoa13rusty_monitor32trace_switch_value_with_var_bool
FNDA:0,_RNCNvNtCsew5f5Roy2iL_4itoa13rusty_monitor32trace_switch_value_with_var_bool0B5_
FNDA:0,_RNvNtCsew5f5Roy2iL_4itoa13rusty_monitor31trace_switch_value_with_var_int
FNDA:0,_RNCNvNtCsew5f5Roy2iL_4itoa13rusty_monitor31trace_switch_value_with_var_int0B5_
FNDA:0,_RNvNtCsew5f5Roy2iL_4itoa13rusty_monitor32trace_switch_value_with_var_char
FNDA:0,_RNCNvNtCsew5f5Roy2iL_4itoa13rusty_monitor32trace_switch_value_with_var_char0B5_
FNDA:0,_RNvNtCsew5f5Roy2iL_4itoa13rusty_monitor8trace_op
FNDA:0,_RNvNtCsew5f5Roy2iL_4itoa13rusty_monitor16trace_branch_hit
FNDA:0,_RNCNvNtCsew5f5Roy2iL_4itoa13rusty_monitor16trace_branch_hit0B5_
FNDA:0,_RNvNtCsew5f5Roy2iL_4itoa13rusty_monitor17trace_branch_bool
FNDA:0,_RNCNvNtCsew5f5Roy2iL_4itoa13rusty_monitor17trace_branch_bool0B5_
FNDA:0,_RNvNtCsew5f5Roy2iL_4itoa13rusty_monitor8distance
FNDA:0,_RNvNtCsew5f5Roy2iL_4itoa13rusty_monitor11trace_const
FNDA:0,_RNvMs0_NtCsew5f5Roy2iL_4itoa13rusty_monitorNtB5_7Monitor11set_test_id
FNDA:50,_RNvMs0_NtCsew5f5Roy2iL_4itoa13rusty_monitorNtB5_7Monitor3new
FNDA:50,_RNvNtCsew5f5Roy2iL_4itoa13rusty_monitor11set_test_id
FNDA:0,_RNCNvNtCsew5f5Roy2iL_4itoa13rusty_monitor11set_test_id0B5_
FNF:26
FNH:2
DA:50,0
DA:51,0
DA:52,0
DA:53,0
DA:54,0
DA:55,0
DA:56,0
DA:57,0
DA:58,0
DA:59,0
DA:60,0
DA:61,0
DA:62,0
DA:63,0
DA:64,0
DA:65,0
DA:66,0
DA:67,0
DA:68,0
DA:70,0
DA:81,0
DA:82,0
DA:83,0
DA:84,0
DA:86,0
DA:99,0
DA:100,0
DA:101,0
DA:103,0
DA:104,0
DA:105,0
DA:106,0
DA:107,0
DA:108,0
DA:109,0
DA:110,0
DA:111,0
DA:112,0
DA:113,0
DA:114,0
DA:115,0
DA:116,0
DA:117,0
DA:118,0
DA:119,0
DA:120,0
DA:121,0
DA:123,0
DA:124,0
DA:125,0
DA:126,0
DA:127,0
DA:128,0
DA:130,50
DA:131,50
DA:132,50
DA:133,50
DA:134,50
DA:135,50
DA:136,50
DA:137,50
DA:138,50
DA:139,50
DA:140,50
DA:141,50
DA:142,50
DA:143,50
DA:144,50
DA:145,50
DA:148,0
DA:149,0
DA:150,0
DA:152,0
DA:153,0
DA:154,0
DA:155,0
DA:157,0
DA:158,0
DA:159,0
DA:161,0
DA:164,0
DA:165,0
DA:166,0
DA:167,0
DA:169,0
DA:170,0
DA:171,0
DA:173,0
DA:174,0
DA:176,0
DA:180,0
DA:181,0
DA:182,0
DA:183,0
DA:185,0
DA:186,0
DA:187,0
DA:189,0
DA:190,0
DA:192,0
DA:196,0
DA:197,0
DA:198,0
DA:199,0
DA:201,0
DA:202,0
DA:203,0
DA:205,0
DA:206,0
DA:207,0
DA:208,0
DA:209,0
DA:211,0
DA:212,0
DA:213,0
DA:214,0
DA:215,0
DA:216,0
DA:217,0
DA:218,0
DA:219,0
DA:220,0
DA:221,0
DA:222,0
DA:224,0
DA:225,0
DA:228,0
DA:230,0
DA:233,0
DA:238,0
DA:240,0
DA:243,0
DA:248,0
DA:250,0
DA:253,0
DA:258,0
DA:260,0
DA:263,0
DA:268,0
DA:270,0
DA:272,0
DA:277,0
DA:279,0
DA:282,0
DA:285,0
DA:287,0
DA:289,0
DA:291,50
DA:292,50
DA:293,50
BRF:0
BRH:0
LF:162
LH:19
end_of_record
SF:/home/abezbm/rusty-unit/evaluation/itoa/rusty-unit-0/src/udiv128.rs
FN:7,_RNvNtCsew5f5Roy2iL_4itoa7udiv12810u128_mulhiB3_
FN:34,_RNvNtCsew5f5Roy2iL_4itoa7udiv12812udivmod_1e19B3_
FN:56,_RNvNtNtCsew5f5Roy2iL_4itoa7udiv12811rusty_testss_12rusty_test_0
FN:57,_RNvNvNtNtCsew5f5Roy2iL_4itoa7udiv12811rusty_testss_12rusty_test_014ntest_callback
FN:94,_RNvNtNtCsew5f5Roy2iL_4itoa7udiv12811rusty_testss_12rusty_test_1
FN:95,_RNvNvNtNtCsew5f5Roy2iL_4itoa7udiv12811rusty_testss_12rusty_test_114ntest_callback
FN:133,_RNvNtNtCsew5f5Roy2iL_4itoa7udiv12811rusty_testss_12rusty_test_2
FN:134,_RNvNvNtNtCsew5f5Roy2iL_4itoa7udiv12811rusty_testss_12rusty_test_214ntest_callback
FN:172,_RNvNtNtCsew5f5Roy2iL_4itoa7udiv12811rusty_testss_12rusty_test_3
FN:173,_RNvNvNtNtCsew5f5Roy2iL_4itoa7udiv12811rusty_testss_12rusty_test_314ntest_callback
FN:210,_RNvNtNtCsew5f5Roy2iL_4itoa7udiv12811rusty_testss_12rusty_test_4
FN:211,_RNvNvNtNtCsew5f5Roy2iL_4itoa7udiv12811rusty_testss_12rusty_test_414ntest_callback
FN:249,_RNvNtNtCsew5f5Roy2iL_4itoa7udiv12811rusty_testss_12rusty_test_5
FN:250,_RNvNvNtNtCsew5f5Roy2iL_4itoa7udiv12811rusty_testss_12rusty_test_514ntest_callback
FN:289,_RNvNtNtCsew5f5Roy2iL_4itoa7udiv12811rusty_testss_12rusty_test_6
FN:290,_RNvNvNtNtCsew5f5Roy2iL_4itoa7udiv12811rusty_testss_12rusty_test_614ntest_callback
FN:328,_RNvNtNtCsew5f5Roy2iL_4itoa7udiv12811rusty_testss_12rusty_test_7
FN:329,_RNvNvNtNtCsew5f5Roy2iL_4itoa7udiv12811rusty_testss_12rusty_test_714ntest_callback
FN:366,_RNvNtNtCsew5f5Roy2iL_4itoa7udiv12811rusty_testss_12rusty_test_8
FN:367,_RNvNvNtNtCsew5f5Roy2iL_4itoa7udiv12811rusty_testss_12rusty_test_814ntest_callback
FN:405,_RNvNtNtCsew5f5Roy2iL_4itoa7udiv12811rusty_testss_12rusty_test_9
FN:406,_RNvNvNtNtCsew5f5Roy2iL_4itoa7udiv12811rusty_testss_12rusty_test_914ntest_callback
FN:443,_RNvNtNtCsew5f5Roy2iL_4itoa7udiv12811rusty_testss_13rusty_test_10
FN:444,_RNvNvNtNtCsew5f5Roy2iL_4itoa7udiv12811rusty_testss_13rusty_test_1014ntest_callback
FN:481,_RNvNtNtCsew5f5Roy2iL_4itoa7udiv12811rusty_testss_13rusty_test_11
FN:482,_RNvNvNtNtCsew5f5Roy2iL_4itoa7udiv12811rusty_testss_13rusty_test_1114ntest_callback
FN:520,_RNvNtNtCsew5f5Roy2iL_4itoa7udiv12811rusty_testss_13rusty_test_12
FN:521,_RNvNvNtNtCsew5f5Roy2iL_4itoa7udiv12811rusty_testss_13rusty_test_1214ntest_callback
FN:558,_RNvNtNtCsew5f5Roy2iL_4itoa7udiv12811rusty_testss_13rusty_test_13
FN:559,_RNvNvNtNtCsew5f5Roy2iL_4itoa7udiv12811rusty_testss_13rusty_test_1314ntest_callback
FN:598,_RNvNtNtCsew5f5Roy2iL_4itoa7udiv12811rusty_testss_13rusty_test_14
FN:599,_RNvNvNtNtCsew5f5Roy2iL_4itoa7udiv12811rusty_testss_13rusty_test_1414ntest_callback
FN:636,_RNvNtNtCsew5f5Roy2iL_4itoa7udiv12811rusty_testss_13rusty_test_15
FN:637,_RNvNvNtNtCsew5f5Roy2iL_4itoa7udiv12811rusty_testss_13rusty_test_1514ntest_callback
FN:675,_RNvNtNtCsew5f5Roy2iL_4itoa7udiv12811rusty_testss_13rusty_test_16
FN:676,_RNvNvNtNtCsew5f5Roy2iL_4itoa7udiv12811rusty_testss_13rusty_test_1614ntest_callback
FN:713,_RNvNtNtCsew5f5Roy2iL_4itoa7udiv12811rusty_testss_13rusty_test_17
FN:714,_RNvNvNtNtCsew5f5Roy2iL_4itoa7udiv12811rusty_testss_13rusty_test_1714ntest_callback
FN:751,_RNvNtNtCsew5f5Roy2iL_4itoa7udiv12811rusty_testss_13rusty_test_18
FN:752,_RNvNvNtNtCsew5f5Roy2iL_4itoa7udiv12811rusty_testss_13rusty_test_1814ntest_callback
FN:789,_RNvNtNtCsew5f5Roy2iL_4itoa7udiv12811rusty_testss_13rusty_test_19
FN:790,_RNvNvNtNtCsew5f5Roy2iL_4itoa7udiv12811rusty_testss_13rusty_test_1914ntest_callback
FN:827,_RNvNtNtCsew5f5Roy2iL_4itoa7udiv12811rusty_testss_13rusty_test_20
FN:828,_RNvNvNtNtCsew5f5Roy2iL_4itoa7udiv12811rusty_testss_13rusty_test_2014ntest_callback
FN:865,_RNvNtNtCsew5f5Roy2iL_4itoa7udiv12811rusty_testss_13rusty_test_21
FN:866,_RNvNvNtNtCsew5f5Roy2iL_4itoa7udiv12811rusty_testss_13rusty_test_2114ntest_callback
FN:903,_RNvNtNtCsew5f5Roy2iL_4itoa7udiv12811rusty_testss_13rusty_test_22
FN:904,_RNvNvNtNtCsew5f5Roy2iL_4itoa7udiv12811rusty_testss_13rusty_test_2214ntest_callback
FN:942,_RNvNtNtCsew5f5Roy2iL_4itoa7udiv12811rusty_testss_13rusty_test_23
FN:943,_RNvNvNtNtCsew5f5Roy2iL_4itoa7udiv12811rusty_testss_13rusty_test_2314ntest_callback
FN:981,_RNvNtNtCsew5f5Roy2iL_4itoa7udiv12811rusty_testss_13rusty_test_24
FN:982,_RNvNvNtNtCsew5f5Roy2iL_4itoa7udiv12811rusty_testss_13rusty_test_2414ntest_callback
FN:1019,_RNvNtNtCsew5f5Roy2iL_4itoa7udiv12811rusty_testss_13rusty_test_25
FN:1020,_RNvNvNtNtCsew5f5Roy2iL_4itoa7udiv12811rusty_testss_13rusty_test_2514ntest_callback
FN:1058,_RNvNtNtCsew5f5Roy2iL_4itoa7udiv12811rusty_testss_13rusty_test_26
FN:1059,_RNvNvNtNtCsew5f5Roy2iL_4itoa7udiv12811rusty_testss_13rusty_test_2614ntest_callback
FN:1096,_RNvNtNtCsew5f5Roy2iL_4itoa7udiv12811rusty_testss_13rusty_test_27
FN:1097,_RNvNvNtNtCsew5f5Roy2iL_4itoa7udiv12811rusty_testss_13rusty_test_2714ntest_callback
FN:1135,_RNvNtNtCsew5f5Roy2iL_4itoa7udiv12811rusty_testss_13rusty_test_28
FN:1136,_RNvNvNtNtCsew5f5Roy2iL_4itoa7udiv12811rusty_testss_13rusty_test_2814ntest_callback
FN:1173,_RNvNtNtCsew5f5Roy2iL_4itoa7udiv12811rusty_testss_13rusty_test_29
FN:1174,_RNvNvNtNtCsew5f5Roy2iL_4itoa7udiv12811rusty_testss_13rusty_test_2914ntest_callback
FN:1211,_RNvNtNtCsew5f5Roy2iL_4itoa7udiv12811rusty_testss_13rusty_test_30
FN:1212,_RNvNvNtNtCsew5f5Roy2iL_4itoa7udiv12811rusty_testss_13rusty_test_3014ntest_callback
FN:1249,_RNvNtNtCsew5f5Roy2iL_4itoa7udiv12811rusty_testss_13rusty_test_31
FN:1250,_RNvNvNtNtCsew5f5Roy2iL_4itoa7udiv12811rusty_testss_13rusty_test_3114ntest_callback
FN:1287,_RNvNtNtCsew5f5Roy2iL_4itoa7udiv12811rusty_testss_13rusty_test_32
FN:1288,_RNvNvNtNtCsew5f5Roy2iL_4itoa7udiv12811rusty_testss_13rusty_test_3214ntest_callback
FN:1325,_RNvNtNtCsew5f5Roy2iL_4itoa7udiv12811rusty_testss_13rusty_test_33
FN:1326,_RNvNvNtNtCsew5f5Roy2iL_4itoa7udiv12811rusty_testss_13rusty_test_3314ntest_callback
FN:1364,_RNvNtNtCsew5f5Roy2iL_4itoa7udiv12811rusty_testss_13rusty_test_34
FN:1365,_RNvNvNtNtCsew5f5Roy2iL_4itoa7udiv12811rusty_testss_13rusty_test_3414ntest_callback
FN:1402,_RNvNtNtCsew5f5Roy2iL_4itoa7udiv12811rusty_testss_13rusty_test_35
FN:1403,_RNvNvNtNtCsew5f5Roy2iL_4itoa7udiv12811rusty_testss_13rusty_test_3514ntest_callback
FN:1441,_RNvNtNtCsew5f5Roy2iL_4itoa7udiv12811rusty_testss_13rusty_test_36
FN:1442,_RNvNvNtNtCsew5f5Roy2iL_4itoa7udiv12811rusty_testss_13rusty_test_3614ntest_callback
FN:1480,_RNvNtNtCsew5f5Roy2iL_4itoa7udiv12811rusty_testss_13rusty_test_37
FN:1481,_RNvNvNtNtCsew5f5Roy2iL_4itoa7udiv12811rusty_testss_13rusty_test_3714ntest_callback
FN:1518,_RNvNtNtCsew5f5Roy2iL_4itoa7udiv12811rusty_testss_13rusty_test_38
FN:1519,_RNvNvNtNtCsew5f5Roy2iL_4itoa7udiv12811rusty_testss_13rusty_test_3814ntest_callback
FN:1556,_RNvNtNtCsew5f5Roy2iL_4itoa7udiv12811rusty_testss_13rusty_test_39
FN:1557,_RNvNvNtNtCsew5f5Roy2iL_4itoa7udiv12811rusty_testss_13rusty_test_3914ntest_callback
FN:1594,_RNvNtNtCsew5f5Roy2iL_4itoa7udiv12811rusty_testss_13rusty_test_40
FN:1595,_RNvNvNtNtCsew5f5Roy2iL_4itoa7udiv12811rusty_testss_13rusty_test_4014ntest_callback
FN:1633,_RNvNtNtCsew5f5Roy2iL_4itoa7udiv12811rusty_testss_13rusty_test_41
FN:1634,_RNvNvNtNtCsew5f5Roy2iL_4itoa7udiv12811rusty_testss_13rusty_test_4114ntest_callback
FN:1671,_RNvNtNtCsew5f5Roy2iL_4itoa7udiv12811rusty_testss_13rusty_test_42
FN:1672,_RNvNvNtNtCsew5f5Roy2iL_4itoa7udiv12811rusty_testss_13rusty_test_4214ntest_callback
FN:1710,_RNvNtNtCsew5f5Roy2iL_4itoa7udiv12811rusty_testss_13rusty_test_43
FN:1711,_RNvNvNtNtCsew5f5Roy2iL_4itoa7udiv12811rusty_testss_13rusty_test_4314ntest_callback
FN:1748,_RNvNtNtCsew5f5Roy2iL_4itoa7udiv12811rusty_testss_13rusty_test_44
FN:1749,_RNvNvNtNtCsew5f5Roy2iL_4itoa7udiv12811rusty_testss_13rusty_test_4414ntest_callback
FN:1787,_RNvNtNtCsew5f5Roy2iL_4itoa7udiv12811rusty_testss_13rusty_test_45
FN:1788,_RNvNvNtNtCsew5f5Roy2iL_4itoa7udiv12811rusty_testss_13rusty_test_4514ntest_callback
FN:1825,_RNvNtNtCsew5f5Roy2iL_4itoa7udiv12811rusty_testss_13rusty_test_46
FN:1826,_RNvNvNtNtCsew5f5Roy2iL_4itoa7udiv12811rusty_testss_13rusty_test_4614ntest_callback
FN:1863,_RNvNtNtCsew5f5Roy2iL_4itoa7udiv12811rusty_testss_13rusty_test_47
FN:1864,_RNvNvNtNtCsew5f5Roy2iL_4itoa7udiv12811rusty_testss_13rusty_test_4714ntest_callback
FN:1901,_RNvNtNtCsew5f5Roy2iL_4itoa7udiv12811rusty_testss_13rusty_test_48
FN:1902,_RNvNvNtNtCsew5f5Roy2iL_4itoa7udiv12811rusty_testss_13rusty_test_4814ntest_callback
FN:1939,_RNvNtNtCsew5f5Roy2iL_4itoa7udiv12811rusty_testss_13rusty_test_49
FN:1940,_RNvNvNtNtCsew5f5Roy2iL_4itoa7udiv12811rusty_testss_13rusty_test_4914ntest_callback
FN:7,_RNvNtCslKU4WaBVSD6_4itoa7udiv12810u128_mulhiCs2xnfwDM4T0F_4test
FN:34,_RNvNtCslKU4WaBVSD6_4itoa7udiv12812udivmod_1e19Cs2xnfwDM4T0F_4test
FNDA:0,_RNvNtCsew5f5Roy2iL_4itoa7udiv12810u128_mulhiB3_
FNDA:0,_RNvNtCsew5f5Roy2iL_4itoa7udiv12812udivmod_1e19B3_
FNDA:0,_RNvNtNtCsew5f5Roy2iL_4itoa7udiv12811rusty_testss_12rusty_test_0
FNDA:1,_RNvNvNtNtCsew5f5Roy2iL_4itoa7udiv12811rusty_testss_12rusty_test_014ntest_callback
FNDA:0,_RNvNtNtCsew5f5Roy2iL_4itoa7udiv12811rusty_testss_12rusty_test_1
FNDA:1,_RNvNvNtNtCsew5f5Roy2iL_4itoa7udiv12811rusty_testss_12rusty_test_114ntest_callback
FNDA:0,_RNvNtNtCsew5f5Roy2iL_4itoa7udiv12811rusty_testss_12rusty_test_2
FNDA:1,_RNvNvNtNtCsew5f5Roy2iL_4itoa7udiv12811rusty_testss_12rusty_test_214ntest_callback
FNDA:0,_RNvNtNtCsew5f5Roy2iL_4itoa7udiv12811rusty_testss_12rusty_test_3
FNDA:1,_RNvNvNtNtCsew5f5Roy2iL_4itoa7udiv12811rusty_testss_12rusty_test_314ntest_callback
FNDA:0,_RNvNtNtCsew5f5Roy2iL_4itoa7udiv12811rusty_testss_12rusty_test_4
FNDA:1,_RNvNvNtNtCsew5f5Roy2iL_4itoa7udiv12811rusty_testss_12rusty_test_414ntest_callback
FNDA:0,_RNvNtNtCsew5f5Roy2iL_4itoa7udiv12811rusty_testss_12rusty_test_5
FNDA:1,_RNvNvNtNtCsew5f5Roy2iL_4itoa7udiv12811rusty_testss_12rusty_test_514ntest_callback
FNDA:0,_RNvNtNtCsew5f5Roy2iL_4itoa7udiv12811rusty_testss_12rusty_test_6
FNDA:1,_RNvNvNtNtCsew5f5Roy2iL_4itoa7udiv12811rusty_testss_12rusty_test_614ntest_callback
FNDA:0,_RNvNtNtCsew5f5Roy2iL_4itoa7udiv12811rusty_testss_12rusty_test_7
FNDA:1,_RNvNvNtNtCsew5f5Roy2iL_4itoa7udiv12811rusty_testss_12rusty_test_714ntest_callback
FNDA:0,_RNvNtNtCsew5f5Roy2iL_4itoa7udiv12811rusty_testss_12rusty_test_8
FNDA:1,_RNvNvNtNtCsew5f5Roy2iL_4itoa7udiv12811rusty_testss_12rusty_test_814ntest_callback
FNDA:0,_RNvNtNtCsew5f5Roy2iL_4itoa7udiv12811rusty_testss_12rusty_test_9
FNDA:1,_RNvNvNtNtCsew5f5Roy2iL_4itoa7udiv12811rusty_testss_12rusty_test_914ntest_callback
FNDA:0,_RNvNtNtCsew5f5Roy2iL_4itoa7udiv12811rusty_testss_13rusty_test_10
FNDA:1,_RNvNvNtNtCsew5f5Roy2iL_4itoa7udiv12811rusty_testss_13rusty_test_1014ntest_callback
FNDA:0,_RNvNtNtCsew5f5Roy2iL_4itoa7udiv12811rusty_testss_13rusty_test_11
FNDA:1,_RNvNvNtNtCsew5f5Roy2iL_4itoa7udiv12811rusty_testss_13rusty_test_1114ntest_callback
FNDA:0,_RNvNtNtCsew5f5Roy2iL_4itoa7udiv12811rusty_testss_13rusty_test_12
FNDA:1,_RNvNvNtNtCsew5f5Roy2iL_4itoa7udiv12811rusty_testss_13rusty_test_1214ntest_callback
FNDA:0,_RNvNtNtCsew5f5Roy2iL_4itoa7udiv12811rusty_testss_13rusty_test_13
FNDA:1,_RNvNvNtNtCsew5f5Roy2iL_4itoa7udiv12811rusty_testss_13rusty_test_1314ntest_callback
FNDA:0,_RNvNtNtCsew5f5Roy2iL_4itoa7udiv12811rusty_testss_13rusty_test_14
FNDA:1,_RNvNvNtNtCsew5f5Roy2iL_4itoa7udiv12811rusty_testss_13rusty_test_1414ntest_callback
FNDA:0,_RNvNtNtCsew5f5Roy2iL_4itoa7udiv12811rusty_testss_13rusty_test_15
FNDA:1,_RNvNvNtNtCsew5f5Roy2iL_4itoa7udiv12811rusty_testss_13rusty_test_1514ntest_callback
FNDA:0,_RNvNtNtCsew5f5Roy2iL_4itoa7udiv12811rusty_testss_13rusty_test_16
FNDA:1,_RNvNvNtNtCsew5f5Roy2iL_4itoa7udiv12811rusty_testss_13rusty_test_1614ntest_callback
FNDA:0,_RNvNtNtCsew5f5Roy2iL_4itoa7udiv12811rusty_testss_13rusty_test_17
FNDA:1,_RNvNvNtNtCsew5f5Roy2iL_4itoa7udiv12811rusty_testss_13rusty_test_1714ntest_callback
FNDA:0,_RNvNtNtCsew5f5Roy2iL_4itoa7udiv12811rusty_testss_13rusty_test_18
FNDA:1,_RNvNvNtNtCsew5f5Roy2iL_4itoa7udiv12811rusty_testss_13rusty_test_1814ntest_callback
FNDA:0,_RNvNtNtCsew5f5Roy2iL_4itoa7udiv12811rusty_testss_13rusty_test_19
FNDA:1,_RNvNvNtNtCsew5f5Roy2iL_4itoa7udiv12811rusty_testss_13rusty_test_1914ntest_callback
FNDA:0,_RNvNtNtCsew5f5Roy2iL_4itoa7udiv12811rusty_testss_13rusty_test_20
FNDA:1,_RNvNvNtNtCsew5f5Roy2iL_4itoa7udiv12811rusty_testss_13rusty_test_2014ntest_callback
FNDA:0,_RNvNtNtCsew5f5Roy2iL_4itoa7udiv12811rusty_testss_13rusty_test_21
FNDA:1,_RNvNvNtNtCsew5f5Roy2iL_4itoa7udiv12811rusty_testss_13rusty_test_2114ntest_callback
FNDA:0,_RNvNtNtCsew5f5Roy2iL_4itoa7udiv12811rusty_testss_13rusty_test_22
FNDA:1,_RNvNvNtNtCsew5f5Roy2iL_4itoa7udiv12811rusty_testss_13rusty_test_2214ntest_callback
FNDA:0,_RNvNtNtCsew5f5Roy2iL_4itoa7udiv12811rusty_testss_13rusty_test_23
FNDA:1,_RNvNvNtNtCsew5f5Roy2iL_4itoa7udiv12811rusty_testss_13rusty_test_2314ntest_callback
FNDA:0,_RNvNtNtCsew5f5Roy2iL_4itoa7udiv12811rusty_testss_13rusty_test_24
FNDA:1,_RNvNvNtNtCsew5f5Roy2iL_4itoa7udiv12811rusty_testss_13rusty_test_2414ntest_callback
FNDA:0,_RNvNtNtCsew5f5Roy2iL_4itoa7udiv12811rusty_testss_13rusty_test_25
FNDA:1,_RNvNvNtNtCsew5f5Roy2iL_4itoa7udiv12811rusty_testss_13rusty_test_2514ntest_callback
FNDA:0,_RNvNtNtCsew5f5Roy2iL_4itoa7udiv12811rusty_testss_13rusty_test_26
FNDA:1,_RNvNvNtNtCsew5f5Roy2iL_4itoa7udiv12811rusty_testss_13rusty_test_2614ntest_callback
FNDA:0,_RNvNtNtCsew5f5Roy2iL_4itoa7udiv12811rusty_testss_13rusty_test_27
FNDA:1,_RNvNvNtNtCsew5f5Roy2iL_4itoa7udiv12811rusty_testss_13rusty_test_2714ntest_callback
FNDA:0,_RNvNtNtCsew5f5Roy2iL_4itoa7udiv12811rusty_testss_13rusty_test_28
FNDA:1,_RNvNvNtNtCsew5f5Roy2iL_4itoa7udiv12811rusty_testss_13rusty_test_2814ntest_callback
FNDA:0,_RNvNtNtCsew5f5Roy2iL_4itoa7udiv12811rusty_testss_13rusty_test_29
FNDA:1,_RNvNvNtNtCsew5f5Roy2iL_4itoa7udiv12811rusty_testss_13rusty_test_2914ntest_callback
FNDA:0,_RNvNtNtCsew5f5Roy2iL_4itoa7udiv12811rusty_testss_13rusty_test_30
FNDA:1,_RNvNvNtNtCsew5f5Roy2iL_4itoa7udiv12811rusty_testss_13rusty_test_3014ntest_callback
FNDA:0,_RNvNtNtCsew5f5Roy2iL_4itoa7udiv12811rusty_testss_13rusty_test_31
FNDA:1,_RNvNvNtNtCsew5f5Roy2iL_4itoa7udiv12811rusty_testss_13rusty_test_3114ntest_callback
FNDA:0,_RNvNtNtCsew5f5Roy2iL_4itoa7udiv12811rusty_testss_13rusty_test_32
FNDA:1,_RNvNvNtNtCsew5f5Roy2iL_4itoa7udiv12811rusty_testss_13rusty_test_3214ntest_callback
FNDA:0,_RNvNtNtCsew5f5Roy2iL_4itoa7udiv12811rusty_testss_13rusty_test_33
FNDA:1,_RNvNvNtNtCsew5f5Roy2iL_4itoa7udiv12811rusty_testss_13rusty_test_3314ntest_callback
FNDA:0,_RNvNtNtCsew5f5Roy2iL_4itoa7udiv12811rusty_testss_13rusty_test_34
FNDA:1,_RNvNvNtNtCsew5f5Roy2iL_4itoa7udiv12811rusty_testss_13rusty_test_3414ntest_callback
FNDA:0,_RNvNtNtCsew5f5Roy2iL_4itoa7udiv12811rusty_testss_13rusty_test_35
FNDA:1,_RNvNvNtNtCsew5f5Roy2iL_4itoa7udiv12811rusty_testss_13rusty_test_3514ntest_callback
FNDA:0,_RNvNtNtCsew5f5Roy2iL_4itoa7udiv12811rusty_testss_13rusty_test_36
FNDA:1,_RNvNvNtNtCsew5f5Roy2iL_4itoa7udiv12811rusty_testss_13rusty_test_3614ntest_callback
FNDA:0,_RNvNtNtCsew5f5Roy2iL_4itoa7udiv12811rusty_testss_13rusty_test_37
FNDA:1,_RNvNvNtNtCsew5f5Roy2iL_4itoa7udiv12811rusty_testss_13rusty_test_3714ntest_callback
FNDA:0,_RNvNtNtCsew5f5Roy2iL_4itoa7udiv12811rusty_testss_13rusty_test_38
FNDA:1,_RNvNvNtNtCsew5f5Roy2iL_4itoa7udiv12811rusty_testss_13rusty_test_3814ntest_callback
FNDA:0,_RNvNtNtCsew5f5Roy2iL_4itoa7udiv12811rusty_testss_13rusty_test_39
FNDA:1,_RNvNvNtNtCsew5f5Roy2iL_4itoa7udiv12811rusty_testss_13rusty_test_3914ntest_callback
FNDA:0,_RNvNtNtCsew5f5Roy2iL_4itoa7udiv12811rusty_testss_13rusty_test_40
FNDA:1,_RNvNvNtNtCsew5f5Roy2iL_4itoa7udiv12811rusty_testss_13rusty_test_4014ntest_callback
FNDA:0,_RNvNtNtCsew5f5Roy2iL_4itoa7udiv12811rusty_testss_13rusty_test_41
FNDA:1,_RNvNvNtNtCsew5f5Roy2iL_4itoa7udiv12811rusty_testss_13rusty_test_4114ntest_callback
FNDA:0,_RNvNtNtCsew5f5Roy2iL_4itoa7udiv12811rusty_testss_13rusty_test_42
FNDA:1,_RNvNvNtNtCsew5f5Roy2iL_4itoa7udiv12811rusty_testss_13rusty_test_4214ntest_callback
FNDA:0,_RNvNtNtCsew5f5Roy2iL_4itoa7udiv12811rusty_testss_13rusty_test_43
FNDA:1,_RNvNvNtNtCsew5f5Roy2iL_4itoa7udiv12811rusty_testss_13rusty_test_4314ntest_callback
FNDA:0,_RNvNtNtCsew5f5Roy2iL_4itoa7udiv12811rusty_testss_13rusty_test_44
FNDA:1,_RNvNvNtNtCsew5f5Roy2iL_4itoa7udiv12811rusty_testss_13rusty_test_4414ntest_callback
FNDA:0,_RNvNtNtCsew5f5Roy2iL_4itoa7udiv12811rusty_testss_13rusty_test_45
FNDA:1,_RNvNvNtNtCsew5f5Roy2iL_4itoa7udiv12811rusty_testss_13rusty_test_4514ntest_callback
FNDA:0,_RNvNtNtCsew5f5Roy2iL_4itoa7udiv12811rusty_testss_13rusty_test_46
FNDA:1,_RNvNvNtNtCsew5f5Roy2iL_4itoa7udiv12811rusty_testss_13rusty_test_4614ntest_callback
FNDA:0,_RNvNtNtCsew5f5Roy2iL_4itoa7udiv12811rusty_testss_13rusty_test_47
FNDA:1,_RNvNvNtNtCsew5f5Roy2iL_4itoa7udiv12811rusty_testss_13rusty_test_4714ntest_callback
FNDA:0,_RNvNtNtCsew5f5Roy2iL_4itoa7udiv12811rusty_testss_13rusty_test_48
FNDA:1,_RNvNvNtNtCsew5f5Roy2iL_4itoa7udiv12811rusty_testss_13rusty_test_4814ntest_callback
FNDA:0,_RNvNtNtCsew5f5Roy2iL_4itoa7udiv12811rusty_testss_13rusty_test_49
FNDA:1,_RNvNvNtNtCsew5f5Roy2iL_4itoa7udiv12811rusty_testss_13rusty_test_4914ntest_callback
FNDA:0,_RNvNtCslKU4WaBVSD6_4itoa7udiv12810u128_mulhiCs2xnfwDM4T0F_4test
FNDA:0,_RNvNtCslKU4WaBVSD6_4itoa7udiv12812udivmod_1e19Cs2xnfwDM4T0F_4test
FNF:102
FNH:50
DA:7,0
DA:8,0
DA:9,0
DA:10,0
DA:11,0
DA:12,0
DA:13,0
DA:14,0
DA:15,0
DA:16,0
DA:17,0
DA:18,0
DA:19,0
DA:20,0
DA:21,0
DA:22,0
DA:34,0
DA:35,0
DA:37,0
DA:38,0
DA:40,0
DA:43,0
DA:44,0
DA:45,0
DA:47,0
DA:48,0
DA:56,0
DA:57,1
DA:58,1
DA:59,1
DA:60,1
DA:61,1
DA:62,1
DA:63,1
DA:64,1
DA:65,1
DA:66,1
DA:67,1
DA:68,1
DA:69,1
DA:70,1
DA:71,1
DA:72,1
DA:73,1
DA:74,1
DA:75,1
DA:76,1
DA:77,1
DA:78,1
DA:79,1
DA:80,1
DA:81,1
DA:82,1
DA:83,1
DA:84,1
DA:85,1
DA:86,1
DA:87,1
DA:88,1
DA:89,1
DA:94,0
DA:95,1
DA:96,1
DA:97,1
DA:98,1
DA:99,1
DA:100,1
DA:101,1
DA:102,1
DA:103,1
DA:104,1
DA:105,1
DA:106,1
DA:107,1
DA:108,1
DA:109,1
DA:110,1
DA:111,1
DA:112,1
DA:113,1
DA:114,1
DA:115,1
DA:116,1
DA:117,1
DA:118,1
DA:119,1
DA:120,1
DA:121,1
DA:122,1
DA:123,1
DA:124,1
DA:125,1
DA:126,1
DA:127,1
DA:128,1
DA:133,0
DA:134,1
DA:135,1
DA:136,1
DA:137,1
DA:138,1
DA:139,1
DA:140,1
DA:141,1
DA:142,1
DA:143,1
DA:144,1
DA:145,1
DA:146,1
DA:147,1
DA:148,1
DA:149,1
DA:150,1
DA:151,1
DA:152,1
DA:153,1
DA:154,1
DA:155,1
DA:156,1
DA:157,1
DA:158,1
DA:159,1
DA:160,1
DA:161,1
DA:162,1
DA:163,1
DA:164,1
DA:165,1
DA:166,1
DA:167,1
DA:172,0
DA:173,1
DA:174,1
DA:175,1
DA:176,1
DA:177,1
DA:178,1
DA:179,1
DA:180,1
DA:181,1
DA:182,1
DA:183,1
DA:184,1
DA:185,1
DA:186,1
DA:187,1
DA:188,1
DA:189,1
DA:190,1
DA:191,1
DA:192,1
DA:193,1
DA:194,1
DA:195,1
DA:196,1
DA:197,1
DA:198,1
DA:199,1
DA:200,1
DA:201,1
DA:202,1
DA:203,1
DA:204,1
DA:205,1
DA:210,0
DA:211,1
DA:212,1
DA:213,1
DA:214,1
DA:215,1
DA:216,1
DA:217,1
DA:218,1
DA:219,1
DA:220,1
DA:221,1
DA:222,1
DA:223,1
DA:224,1
DA:225,1
DA:226,1
DA:227,1
DA:228,1
DA:229,1
DA:230,1
DA:231,1
DA:232,1
DA:233,1
DA:234,1
DA:235,1
DA:236,1
DA:237,1
DA:238,1
DA:239,1
DA:240,1
DA:241,1
DA:242,1
DA:243,1
DA:244,1
DA:249,0
DA:250,1
DA:251,1
DA:252,1
DA:253,1
DA:254,1
DA:255,1
DA:256,1
DA:257,1
DA:258,1
DA:259,1
DA:260,1
DA:261,1
DA:262,1
DA:263,1
DA:264,1
DA:265,1
DA:266,1
DA:267,1
DA:268,1
DA:269,1
DA:270,1
DA:271,1
DA:272,1
DA:273,1
DA:274,1
DA:275,1
DA:276,1
DA:277,1
DA:278,1
DA:279,1
DA:280,1
DA:281,1
DA:282,1
DA:283,1
DA:284,1
DA:289,0
DA:290,1
DA:291,1
DA:292,1
DA:293,1
DA:294,1
DA:295,1
DA:296,1
DA:297,1
DA:298,1
DA:299,1
DA:300,1
DA:301,1
DA:302,1
DA:303,1
DA:304,1
DA:305,1
DA:306,1
DA:307,1
DA:308,1
DA:309,1
DA:310,1
DA:311,1
DA:312,1
DA:313,1
DA:314,1
DA:315,1
DA:316,1
DA:317,1
DA:318,1
DA:319,1
DA:320,1
DA:321,1
DA:322,1
DA:323,1
DA:328,0
DA:329,1
DA:330,1
DA:331,1
DA:332,1
DA:333,1
DA:334,1
DA:335,1
DA:336,1
DA:337,1
DA:338,1
DA:339,1
DA:340,1
DA:341,1
DA:342,1
DA:343,1
DA:344,1
DA:345,1
DA:346,1
DA:347,1
DA:348,1
DA:349,1
DA:350,1
DA:351,1
DA:352,1
DA:353,1
DA:354,1
DA:355,1
DA:356,1
DA:357,1
DA:358,1
DA:359,1
DA:360,1
DA:361,1
DA:366,0
DA:367,1
DA:368,1
DA:369,1
DA:370,1
DA:371,1
DA:372,1
DA:373,1
DA:374,1
DA:375,1
DA:376,1
DA:377,1
DA:378,1
DA:379,1
DA:380,1
DA:381,1
DA:382,1
DA:383,1
DA:384,1
DA:385,1
DA:386,1
DA:387,1
DA:388,1
DA:389,1
DA:390,1
DA:391,1
DA:392,1
DA:393,1
DA:394,1
DA:395,1
DA:396,1
DA:397,1
DA:398,1
DA:399,1
DA:400,1
DA:405,0
DA:406,1
DA:407,1
DA:408,1
DA:409,1
DA:410,1
DA:411,1
DA:412,1
DA:413,1
DA:414,1
DA:415,1
DA:416,1
DA:417,1
DA:418,1
DA:419,1
DA:420,1
DA:421,1
DA:422,1
DA:423,1
DA:424,1
DA:425,1
DA:426,1
DA:427,1
DA:428,1
DA:429,1
DA:430,1
DA:431,1
DA:432,1
DA:433,1
DA:434,1
DA:435,1
DA:436,1
DA:437,1
DA:438,1
DA:443,0
DA:444,1
DA:445,1
DA:446,1
DA:447,1
DA:448,1
DA:449,1
DA:450,1
DA:451,1
DA:452,1
DA:453,1
DA:454,1
DA:455,1
DA:456,1
DA:457,1
DA:458,1
DA:459,1
DA:460,1
DA:461,1
DA:462,1
DA:463,1
DA:464,1
DA:465,1
DA:466,1
DA:467,1
DA:468,1
DA:469,1
DA:470,1
DA:471,1
DA:472,1
DA:473,1
DA:474,1
DA:475,1
DA:476,1
DA:481,0
DA:482,1
DA:483,1
DA:484,1
DA:485,1
DA:486,1
DA:487,1
DA:488,1
DA:489,1
DA:490,1
DA:491,1
DA:492,1
DA:493,1
DA:494,1
DA:495,1
DA:496,1
DA:497,1
DA:498,1
DA:499,1
DA:500,1
DA:501,1
DA:502,1
DA:503,1
DA:504,1
DA:505,1
DA:506,1
DA:507,1
DA:508,1
DA:509,1
DA:510,1
DA:511,1
DA:512,1
DA:513,1
DA:514,1
DA:515,1
DA:520,0
DA:521,1
DA:522,1
DA:523,1
DA:524,1
DA:525,1
DA:526,1
DA:527,1
DA:528,1
DA:529,1
DA:530,1
DA:531,1
DA:532,1
DA:533,1
DA:534,1
DA:535,1
DA:536,1
DA:537,1
DA:538,1
DA:539,1
DA:540,1
DA:541,1
DA:542,1
DA:543,1
DA:544,1
DA:545,1
DA:546,1
DA:547,1
DA:548,1
DA:549,1
DA:550,1
DA:551,1
DA:552,1
DA:553,1
DA:558,0
DA:559,1
DA:560,1
DA:561,1
DA:562,1
DA:563,1
DA:564,1
DA:565,1
DA:566,1
DA:567,1
DA:568,1
DA:569,1
DA:570,1
DA:571,1
DA:572,1
DA:573,1
DA:574,1
DA:575,1
DA:576,1
DA:577,1
DA:578,1
DA:579,1
DA:580,1
DA:581,1
DA:582,1
DA:583,1
DA:584,1
DA:585,1
DA:586,1
DA:587,1
DA:588,1
DA:589,1
DA:590,1
DA:591,1
DA:592,1
DA:593,1
DA:598,0
DA:599,1
DA:600,1
DA:601,1
DA:602,1
DA:603,1
DA:604,1
DA:605,1
DA:606,1
DA:607,1
DA:608,1
DA:609,1
DA:610,1
DA:611,1
DA:612,1
DA:613,1
DA:614,1
DA:615,1
DA:616,1
DA:617,1
DA:618,1
DA:619,1
DA:620,1
DA:621,1
DA:622,1
DA:623,1
DA:624,1
DA:625,1
DA:626,1
DA:627,1
DA:628,1
DA:629,1
DA:630,1
DA:631,1
DA:636,0
DA:637,1
DA:638,1
DA:639,1
DA:640,1
DA:641,1
DA:642,1
DA:643,1
DA:644,1
DA:645,1
DA:646,1
DA:647,1
DA:648,1
DA:649,1
DA:650,1
DA:651,1
DA:652,1
DA:653,1
DA:654,1
DA:655,1
DA:656,1
DA:657,1
DA:658,1
DA:659,1
DA:660,1
DA:661,1
DA:662,1
DA:663,1
DA:664,1
DA:665,1
DA:666,1
DA:667,1
DA:668,1
DA:669,1
DA:670,1
DA:675,0
DA:676,1
DA:677,1
DA:678,1
DA:679,1
DA:680,1
DA:681,1
DA:682,1
DA:683,1
DA:684,1
DA:685,1
DA:686,1
DA:687,1
DA:688,1
DA:689,1
DA:690,1
DA:691,1
DA:692,1
DA:693,1
DA:694,1
DA:695,1
DA:696,1
DA:697,1
DA:698,1
DA:699,1
DA:700,1
DA:701,1
DA:702,1
DA:703,1
DA:704,1
DA:705,1
DA:706,1
DA:707,1
DA:708,1
DA:713,0
DA:714,1
DA:715,1
DA:716,1
DA:717,1
DA:718,1
DA:719,1
DA:720,1
DA:721,1
DA:722,1
DA:723,1
DA:724,1
DA:725,1
DA:726,1
DA:727,1
DA:728,1
DA:729,1
DA:730,1
DA:731,1
DA:732,1
DA:733,1
DA:734,1
DA:735,1
DA:736,1
DA:737,1
DA:738,1
DA:739,1
DA:740,1
DA:741,1
DA:742,1
DA:743,1
DA:744,1
DA:745,1
DA:746,1
DA:751,0
DA:752,1
DA:753,1
DA:754,1
DA:755,1
DA:756,1
DA:757,1
DA:758,1
DA:759,1
DA:760,1
DA:761,1
DA:762,1
DA:763,1
DA:764,1
DA:765,1
DA:766,1
DA:767,1
DA:768,1
DA:769,1
DA:770,1
DA:771,1
DA:772,1
DA:773,1
DA:774,1
DA:775,1
DA:776,1
DA:777,1
DA:778,1
DA:779,1
DA:780,1
DA:781,1
DA:782,1
DA:783,1
DA:784,1
DA:789,0
DA:790,1
DA:791,1
DA:792,1
DA:793,1
DA:794,1
DA:795,1
DA:796,1
DA:797,1
DA:798,1
DA:799,1
DA:800,1
DA:801,1
DA:802,1
DA:803,1
DA:804,1
DA:805,1
DA:806,1
DA:807,1
DA:808,1
DA:809,1
DA:810,1
DA:811,1
DA:812,1
DA:813,1
DA:814,1
DA:815,1
DA:816,1
DA:817,1
DA:818,1
DA:819,1
DA:820,1
DA:821,1
DA:822,1
DA:827,0
DA:828,1
DA:829,1
DA:830,1
DA:831,1
DA:832,1
DA:833,1
DA:834,1
DA:835,1
DA:836,1
DA:837,1
DA:838,1
DA:839,1
DA:840,1
DA:841,1
DA:842,1
DA:843,1
DA:844,1
DA:845,1
DA:846,1
DA:847,1
DA:848,1
DA:849,1
DA:850,1
DA:851,1
DA:852,1
DA:853,1
DA:854,1
DA:855,1
DA:856,1
DA:857,1
DA:858,1
DA:859,1
DA:860,1
DA:865,0
DA:866,1
DA:867,1
DA:868,1
DA:869,1
DA:870,1
DA:871,1
DA:872,1
DA:873,1
DA:874,1
DA:875,1
DA:876,1
DA:877,1
DA:878,1
DA:879,1
DA:880,1
DA:881,1
DA:882,1
DA:883,1
DA:884,1
DA:885,1
DA:886,1
DA:887,1
DA:888,1
DA:889,1
DA:890,1
DA:891,1
DA:892,1
DA:893,1
DA:894,1
DA:895,1
DA:896,1
DA:897,1
DA:898,1
DA:903,0
DA:904,1
DA:905,1
DA:906,1
DA:907,1
DA:908,1
DA:909,1
DA:910,1
DA:911,1
DA:912,1
DA:913,1
DA:914,1
DA:915,1
DA:916,1
DA:917,1
DA:918,1
DA:919,1
DA:920,1
DA:921,1
DA:922,1
DA:923,1
DA:924,1
DA:925,1
DA:926,1
DA:927,1
DA:928,1
DA:929,1
DA:930,1
DA:931,1
DA:932,1
DA:933,1
DA:934,1
DA:935,1
DA:936,1
DA:937,1
DA:942,0
DA:943,1
DA:944,1
DA:945,1
DA:946,1
DA:947,1
DA:948,1
DA:949,1
DA:950,1
DA:951,1
DA:952,1
DA:953,1
DA:954,1
DA:955,1
DA:956,1
DA:957,1
DA:958,1
DA:959,1
DA:960,1
DA:961,1
DA:962,1
DA:963,1
DA:964,1
DA:965,1
DA:966,1
DA:967,1
DA:968,1
DA:969,1
DA:970,1
DA:971,1
DA:972,1
DA:973,1
DA:974,1
DA:975,1
DA:976,1
DA:981,0
DA:982,1
DA:983,1
DA:984,1
DA:985,1
DA:986,1
DA:987,1
DA:988,1
DA:989,1
DA:990,1
DA:991,1
DA:992,1
DA:993,1
DA:994,1
DA:995,1
DA:996,1
DA:997,1
DA:998,1
DA:999,1
DA:1000,1
DA:1001,1
DA:1002,1
DA:1003,1
DA:1004,1
DA:1005,1
DA:1006,1
DA:1007,1
DA:1008,1
DA:1009,1
DA:1010,1
DA:1011,1
DA:1012,1
DA:1013,1
DA:1014,1
DA:1019,0
DA:1020,1
DA:1021,1
DA:1022,1
DA:1023,1
DA:1024,1
DA:1025,1
DA:1026,1
DA:1027,1
DA:1028,1
DA:1029,1
DA:1030,1
DA:1031,1
DA:1032,1
DA:1033,1
DA:1034,1
DA:1035,1
DA:1036,1
DA:1037,1
DA:1038,1
DA:1039,1
DA:1040,1
DA:1041,1
DA:1042,1
DA:1043,1
DA:1044,1
DA:1045,1
DA:1046,1
DA:1047,1
DA:1048,1
DA:1049,1
DA:1050,1
DA:1051,1
DA:1052,1
DA:1053,1
DA:1058,0
DA:1059,1
DA:1060,1
DA:1061,1
DA:1062,1
DA:1063,1
DA:1064,1
DA:1065,1
DA:1066,1
DA:1067,1
DA:1068,1
DA:1069,1
DA:1070,1
DA:1071,1
DA:1072,1
DA:1073,1
DA:1074,1
DA:1075,1
DA:1076,1
DA:1077,1
DA:1078,1
DA:1079,1
DA:1080,1
DA:1081,1
DA:1082,1
DA:1083,1
DA:1084,1
DA:1085,1
DA:1086,1
DA:1087,1
DA:1088,1
DA:1089,1
DA:1090,1
DA:1091,1
DA:1096,0
DA:1097,1
DA:1098,1
DA:1099,1
DA:1100,1
DA:1101,1
DA:1102,1
DA:1103,1
DA:1104,1
DA:1105,1
DA:1106,1
DA:1107,1
DA:1108,1
DA:1109,1
DA:1110,1
DA:1111,1
DA:1112,1
DA:1113,1
DA:1114,1
DA:1115,1
DA:1116,1
DA:1117,1
DA:1118,1
DA:1119,1
DA:1120,1
DA:1121,1
DA:1122,1
DA:1123,1
DA:1124,1
DA:1125,1
DA:1126,1
DA:1127,1
DA:1128,1
DA:1129,1
DA:1130,1
DA:1135,0
DA:1136,1
DA:1137,1
DA:1138,1
DA:1139,1
DA:1140,1
DA:1141,1
DA:1142,1
DA:1143,1
DA:1144,1
DA:1145,1
DA:1146,1
DA:1147,1
DA:1148,1
DA:1149,1
DA:1150,1
DA:1151,1
DA:1152,1
DA:1153,1
DA:1154,1
DA:1155,1
DA:1156,1
DA:1157,1
DA:1158,1
DA:1159,1
DA:1160,1
DA:1161,1
DA:1162,1
DA:1163,1
DA:1164,1
DA:1165,1
DA:1166,1
DA:1167,1
DA:1168,1
DA:1173,0
DA:1174,1
DA:1175,1
DA:1176,1
DA:1177,1
DA:1178,1
DA:1179,1
DA:1180,1
DA:1181,1
DA:1182,1
DA:1183,1
DA:1184,1
DA:1185,1
DA:1186,1
DA:1187,1
DA:1188,1
DA:1189,1
DA:1190,1
DA:1191,1
DA:1192,1
DA:1193,1
DA:1194,1
DA:1195,1
DA:1196,1
DA:1197,1
DA:1198,1
DA:1199,1
DA:1200,1
DA:1201,1
DA:1202,1
DA:1203,1
DA:1204,1
DA:1205,1
DA:1206,1
DA:1211,0
DA:1212,1
DA:1213,1
DA:1214,1
DA:1215,1
DA:1216,1
DA:1217,1
DA:1218,1
DA:1219,1
DA:1220,1
DA:1221,1
DA:1222,1
DA:1223,1
DA:1224,1
DA:1225,1
DA:1226,1
DA:1227,1
DA:1228,1
DA:1229,1
DA:1230,1
DA:1231,1
DA:1232,1
DA:1233,1
DA:1234,1
DA:1235,1
DA:1236,1
DA:1237,1
DA:1238,1
DA:1239,1
DA:1240,1
DA:1241,1
DA:1242,1
DA:1243,1
DA:1244,1
DA:1249,0
DA:1250,1
DA:1251,1
DA:1252,1
DA:1253,1
DA:1254,1
DA:1255,1
DA:1256,1
DA:1257,1
DA:1258,1
DA:1259,1
DA:1260,1
DA:1261,1
DA:1262,1
DA:1263,1
DA:1264,1
DA:1265,1
DA:1266,1
DA:1267,1
DA:1268,1
DA:1269,1
DA:1270,1
DA:1271,1
DA:1272,1
DA:1273,1
DA:1274,1
DA:1275,1
DA:1276,1
DA:1277,1
DA:1278,1
DA:1279,1
DA:1280,1
DA:1281,1
DA:1282,1
DA:1287,0
DA:1288,1
DA:1289,1
DA:1290,1
DA:1291,1
DA:1292,1
DA:1293,1
DA:1294,1
DA:1295,1
DA:1296,1
DA:1297,1
DA:1298,1
DA:1299,1
DA:1300,1
DA:1301,1
DA:1302,1
DA:1303,1
DA:1304,1
DA:1305,1
DA:1306,1
DA:1307,1
DA:1308,1
DA:1309,1
DA:1310,1
DA:1311,1
DA:1312,1
DA:1313,1
DA:1314,1
DA:1315,1
DA:1316,1
DA:1317,1
DA:1318,1
DA:1319,1
DA:1320,1
DA:1325,0
DA:1326,1
DA:1327,1
DA:1328,1
DA:1329,1
DA:1330,1
DA:1331,1
DA:1332,1
DA:1333,1
DA:1334,1
DA:1335,1
DA:1336,1
DA:1337,1
DA:1338,1
DA:1339,1
DA:1340,1
DA:1341,1
DA:1342,1
DA:1343,1
DA:1344,1
DA:1345,1
DA:1346,1
DA:1347,1
DA:1348,1
DA:1349,1
DA:1350,1
DA:1351,1
DA:1352,1
DA:1353,1
DA:1354,1
DA:1355,1
DA:1356,1
DA:1357,1
DA:1358,1
DA:1359,1
DA:1364,0
DA:1365,1
DA:1366,1
DA:1367,1
DA:1368,1
DA:1369,1
DA:1370,1
DA:1371,1
DA:1372,1
DA:1373,1
DA:1374,1
DA:1375,1
DA:1376,1
DA:1377,1
DA:1378,1
DA:1379,1
DA:1380,1
DA:1381,1
DA:1382,1
DA:1383,1
DA:1384,1
DA:1385,1
DA:1386,1
DA:1387,1
DA:1388,1
DA:1389,1
DA:1390,1
DA:1391,1
DA:1392,1
DA:1393,1
DA:1394,1
DA:1395,1
DA:1396,1
DA:1397,1
DA:1402,0
DA:1403,1
DA:1404,1
DA:1405,1
DA:1406,1
DA:1407,1
DA:1408,1
DA:1409,1
DA:1410,1
DA:1411,1
DA:1412,1
DA:1413,1
DA:1414,1
DA:1415,1
DA:1416,1
DA:1417,1
DA:1418,1
DA:1419,1
DA:1420,1
DA:1421,1
DA:1422,1
DA:1423,1
DA:1424,1
DA:1425,1
DA:1426,1
DA:1427,1
DA:1428,1
DA:1429,1
DA:1430,1
DA:1431,1
DA:1432,1
DA:1433,1
DA:1434,1
DA:1435,1
DA:1436,1
DA:1441,0
DA:1442,1
DA:1443,1
DA:1444,1
DA:1445,1
DA:1446,1
DA:1447,1
DA:1448,1
DA:1449,1
DA:1450,1
DA:1451,1
DA:1452,1
DA:1453,1
DA:1454,1
DA:1455,1
DA:1456,1
DA:1457,1
DA:1458,1
DA:1459,1
DA:1460,1
DA:1461,1
DA:1462,1
DA:1463,1
DA:1464,1
DA:1465,1
DA:1466,1
DA:1467,1
DA:1468,1
DA:1469,1
DA:1470,1
DA:1471,1
DA:1472,1
DA:1473,1
DA:1474,1
DA:1475,1
DA:1480,0
DA:1481,1
DA:1482,1
DA:1483,1
DA:1484,1
DA:1485,1
DA:1486,1
DA:1487,1
DA:1488,1
DA:1489,1
DA:1490,1
DA:1491,1
DA:1492,1
DA:1493,1
DA:1494,1
DA:1495,1
DA:1496,1
DA:1497,1
DA:1498,1
DA:1499,1
DA:1500,1
DA:1501,1
DA:1502,1
DA:1503,1
DA:1504,1
DA:1505,1
DA:1506,1
DA:1507,1
DA:1508,1
DA:1509,1
DA:1510,1
DA:1511,1
DA:1512,1
DA:1513,1
DA:1518,0
DA:1519,1
DA:1520,1
DA:1521,1
DA:1522,1
DA:1523,1
DA:1524,1
DA:1525,1
DA:1526,1
DA:1527,1
DA:1528,1
DA:1529,1
DA:1530,1
DA:1531,1
DA:1532,1
DA:1533,1
DA:1534,1
DA:1535,1
DA:1536,1
DA:1537,1
DA:1538,1
DA:1539,1
DA:1540,1
DA:1541,1
DA:1542,1
DA:1543,1
DA:1544,1
DA:1545,1
DA:1546,1
DA:1547,1
DA:1548,1
DA:1549,1
DA:1550,1
DA:1551,1
DA:1556,0
DA:1557,1
DA:1558,1
DA:1559,1
DA:1560,1
DA:1561,1
DA:1562,1
DA:1563,1
DA:1564,1
DA:1565,1
DA:1566,1
DA:1567,1
DA:1568,1
DA:1569,1
DA:1570,1
DA:1571,1
DA:1572,1
DA:1573,1
DA:1574,1
DA:1575,1
DA:1576,1
DA:1577,1
DA:1578,1
DA:1579,1
DA:1580,1
DA:1581,1
DA:1582,1
DA:1583,1
DA:1584,1
DA:1585,1
DA:1586,1
DA:1587,1
DA:1588,1
DA:1589,1
DA:1594,0
DA:1595,1
DA:1596,1
DA:1597,1
DA:1598,1
DA:1599,1
DA:1600,1
DA:1601,1
DA:1602,1
DA:1603,1
DA:1604,1
DA:1605,1
DA:1606,1
DA:1607,1
DA:1608,1
DA:1609,1
DA:1610,1
DA:1611,1
DA:1612,1
DA:1613,1
DA:1614,1
DA:1615,1
DA:1616,1
DA:1617,1
DA:1618,1
DA:1619,1
DA:1620,1
DA:1621,1
DA:1622,1
DA:1623,1
DA:1624,1
DA:1625,1
DA:1626,1
DA:1627,1
DA:1628,1
DA:1633,0
DA:1634,1
DA:1635,1
DA:1636,1
DA:1637,1
DA:1638,1
DA:1639,1
DA:1640,1
DA:1641,1
DA:1642,1
DA:1643,1
DA:1644,1
DA:1645,1
DA:1646,1
DA:1647,1
DA:1648,1
DA:1649,1
DA:1650,1
DA:1651,1
DA:1652,1
DA:1653,1
DA:1654,1
DA:1655,1
DA:1656,1
DA:1657,1
DA:1658,1
DA:1659,1
DA:1660,1
DA:1661,1
DA:1662,1
DA:1663,1
DA:1664,1
DA:1665,1
DA:1666,1
DA:1671,0
DA:1672,1
DA:1673,1
DA:1674,1
DA:1675,1
DA:1676,1
DA:1677,1
DA:1678,1
DA:1679,1
DA:1680,1
DA:1681,1
DA:1682,1
DA:1683,1
DA:1684,1
DA:1685,1
DA:1686,1
DA:1687,1
DA:1688,1
DA:1689,1
DA:1690,1
DA:1691,1
DA:1692,1
DA:1693,1
DA:1694,1
DA:1695,1
DA:1696,1
DA:1697,1
DA:1698,1
DA:1699,1
DA:1700,1
DA:1701,1
DA:1702,1
DA:1703,1
DA:1704,1
DA:1705,1
DA:1710,0
DA:1711,1
DA:1712,1
DA:1713,1
DA:1714,1
DA:1715,1
DA:1716,1
DA:1717,1
DA:1718,1
DA:1719,1
DA:1720,1
DA:1721,1
DA:1722,1
DA:1723,1
DA:1724,1
DA:1725,1
DA:1726,1
DA:1727,1
DA:1728,1
DA:1729,1
DA:1730,1
DA:1731,1
DA:1732,1
DA:1733,1
DA:1734,1
DA:1735,1
DA:1736,1
DA:1737,1
DA:1738,1
DA:1739,1
DA:1740,1
DA:1741,1
DA:1742,1
DA:1743,1
DA:1748,0
DA:1749,1
DA:1750,1
DA:1751,1
DA:1752,1
DA:1753,1
DA:1754,1
DA:1755,1
DA:1756,1
DA:1757,1
DA:1758,1
DA:1759,1
DA:1760,1
DA:1761,1
DA:1762,1
DA:1763,1
DA:1764,1
DA:1765,1
DA:1766,1
DA:1767,1
DA:1768,1
DA:1769,1
DA:1770,1
DA:1771,1
DA:1772,1
DA:1773,1
DA:1774,1
DA:1775,1
DA:1776,1
DA:1777,1
DA:1778,1
DA:1779,1
DA:1780,1
DA:1781,1
DA:1782,1
DA:1787,0
DA:1788,1
DA:1789,1
DA:1790,1
DA:1791,1
DA:1792,1
DA:1793,1
DA:1794,1
DA:1795,1
DA:1796,1
DA:1797,1
DA:1798,1
DA:1799,1
DA:1800,1
DA:1801,1
DA:1802,1
DA:1803,1
DA:1804,1
DA:1805,1
DA:1806,1
DA:1807,1
DA:1808,1
DA:1809,1
DA:1810,1
DA:1811,1
DA:1812,1
DA:1813,1
DA:1814,1
DA:1815,1
DA:1816,1
DA:1817,1
DA:1818,1
DA:1819,1
DA:1820,1
DA:1825,0
DA:1826,1
DA:1827,1
DA:1828,1
DA:1829,1
DA:1830,1
DA:1831,1
DA:1832,1
DA:1833,1
DA:1834,1
DA:1835,1
DA:1836,1
DA:1837,1
DA:1838,1
DA:1839,1
DA:1840,1
DA:1841,1
DA:1842,1
DA:1843,1
DA:1844,1
DA:1845,1
DA:1846,1
DA:1847,1
DA:1848,1
DA:1849,1
DA:1850,1
DA:1851,1
DA:1852,1
DA:1853,1
DA:1854,1
DA:1855,1
DA:1856,1
DA:1857,1
DA:1858,1
DA:1863,0
DA:1864,1
DA:1865,1
DA:1866,1
DA:1867,1
DA:1868,1
DA:1869,1
DA:1870,1
DA:1871,1
DA:1872,1
DA:1873,1
DA:1874,1
DA:1875,1
DA:1876,1
DA:1877,1
DA:1878,1
DA:1879,1
DA:1880,1
DA:1881,1
DA:1882,1
DA:1883,1
DA:1884,1
DA:1885,1
DA:1886,1
DA:1887,1
DA:1888,1
DA:1889,1
DA:1890,1
DA:1891,1
DA:1892,1
DA:1893,1
DA:1894,1
DA:1895,1
DA:1896,1
DA:1901,0
DA:1902,1
DA:1903,1
DA:1904,1
DA:1905,1
DA:1906,1
DA:1907,1
DA:1908,1
DA:1909,1
DA:1910,1
DA:1911,1
DA:1912,1
DA:1913,1
DA:1914,1
DA:1915,1
DA:1916,1
DA:1917,1
DA:1918,1
DA:1919,1
DA:1920,1
DA:1921,1
DA:1922,1
DA:1923,1
DA:1924,1
DA:1925,1
DA:1926,1
DA:1927,1
DA:1928,1
DA:1929,1
DA:1930,1
DA:1931,1
DA:1932,1
DA:1933,1
DA:1934,1
DA:1939,0
DA:1940,1
DA:1941,1
DA:1942,1
DA:1943,1
DA:1944,1
DA:1945,1
DA:1946,1
DA:1947,1
DA:1948,1
DA:1949,1
DA:1950,1
DA:1951,1
DA:1952,1
DA:1953,1
DA:1954,1
DA:1955,1
DA:1956,1
DA:1957,1
DA:1958,1
DA:1959,1
DA:1960,1
DA:1961,1
DA:1962,1
DA:1963,1
DA:1964,1
DA:1965,1
DA:1966,1
DA:1967,1
DA:1968,1
DA:1969,1
DA:1970,1
DA:1971,1
DA:1972,1
DA:1973,1
BRDA:37,0,0,-
BRDA:37,0,1,-
BRDA:37,1,2,-
BRDA:37,1,3,-
BRF:2
BRH:0
LF:1748
LH:1672
end_of_record